; ModuleID = '2/921.c'
source_filename = "2/921.c"
target datalayout = "e-m:e-p270:32:32-p271:32:32-p272:64:64-i64:64-f80:128-n8:16:32:64-S128"
target triple = "x86_64-pc-linux-gnu"

%struct.student = type { i32, [26 x i8] }

@.str = private unnamed_addr constant [3 x i8] c"%d\00", align 1
@.str.1 = private unnamed_addr constant [5 x i8] c"%d%s\00", align 1
@stu = common dso_local global [999 x %struct.student] zeroinitializer, align 16
@.str.2 = private unnamed_addr constant [4 x i8] c"%c\0A\00", align 1
@.str.3 = private unnamed_addr constant [4 x i8] c"%d\0A\00", align 1

; Function Attrs: noinline nounwind uwtable
define dso_local i32 @main() #0 {
  %1 = alloca i32, align 4
  %2 = alloca i32, align 4
  %3 = alloca [26 x i32], align 16
  %4 = alloca i32, align 4
  %5 = alloca i32, align 4
  %6 = alloca i32, align 4
  %7 = alloca i32, align 4
  %8 = alloca i32, align 4
  store i32 0, i32* %1, align 4
  %9 = bitcast [26 x i32]* %3 to i8*
  call void @llvm.memset.p0i8.i64(i8* align 16 %9, i8 0, i64 104, i1 false)
  store i32 0, i32* %8, align 4
  %10 = call i32 (i8*, ...) @__isoc99_scanf(i8* getelementptr inbounds ([3 x i8], [3 x i8]* @.str, i64 0, i64 0), i32* %2)
  store i32 0, i32* %4, align 4
  br label %11

11:                                               ; preds = %26, %0
  %12 = load i32, i32* %4, align 4
  %13 = load i32, i32* %2, align 4
  %14 = icmp slt i32 %12, %13
  br i1 %14, label %15, label %29

15:                                               ; preds = %11
  %16 = load i32, i32* %4, align 4
  %17 = sext i32 %16 to i64
  %18 = getelementptr inbounds [999 x %struct.student], [999 x %struct.student]* @stu, i64 0, i64 %17
  %19 = getelementptr inbounds %struct.student, %struct.student* %18, i32 0, i32 0
  %20 = load i32, i32* %4, align 4
  %21 = sext i32 %20 to i64
  %22 = getelementptr inbounds [999 x %struct.student], [999 x %struct.student]* @stu, i64 0, i64 %21
  %23 = getelementptr inbounds %struct.student, %struct.student* %22, i32 0, i32 1
  %24 = getelementptr inbounds [26 x i8], [26 x i8]* %23, i64 0, i64 0
  %25 = call i32 (i8*, ...) @__isoc99_scanf(i8* getelementptr inbounds ([5 x i8], [5 x i8]* @.str.1, i64 0, i64 0), i32* %19, i8* %24)
  br label %26

26:                                               ; preds = %15
  %27 = load i32, i32* %4, align 4
  %28 = add nsw i32 %27, 1
  store i32 %28, i32* %4, align 4
  br label %11

29:                                               ; preds = %11
  store i32 0, i32* %4, align 4
  br label %30

30:                                               ; preds = %77, %29
  %31 = load i32, i32* %4, align 4
  %32 = icmp slt i32 %31, 26
  br i1 %32, label %33, label %80

33:                                               ; preds = %30
  store i32 0, i32* %7, align 4
  br label %34

34:                                               ; preds = %73, %33
  %35 = load i32, i32* %7, align 4
  %36 = load i32, i32* %2, align 4
  %37 = icmp slt i32 %35, %36
  br i1 %37, label %38, label %76

38:                                               ; preds = %34
  store i32 0, i32* %5, align 4
  br label %39

39:                                               ; preds = %69, %38
  %40 = load i32, i32* %5, align 4
  %41 = sext i32 %40 to i64
  %42 = load i32, i32* %7, align 4
  %43 = sext i32 %42 to i64
  %44 = getelementptr inbounds [999 x %struct.student], [999 x %struct.student]* @stu, i64 0, i64 %43
  %45 = getelementptr inbounds %struct.student, %struct.student* %44, i32 0, i32 1
  %46 = getelementptr inbounds [26 x i8], [26 x i8]* %45, i64 0, i64 0
  %47 = call i64 @strlen(i8* %46) #4
  %48 = icmp ult i64 %41, %47
  br i1 %48, label %49, label %72

49:                                               ; preds = %39
  %50 = load i32, i32* %7, align 4
  %51 = sext i32 %50 to i64
  %52 = getelementptr inbounds [999 x %struct.student], [999 x %struct.student]* @stu, i64 0, i64 %51
  %53 = getelementptr inbounds %struct.student, %struct.student* %52, i32 0, i32 1
  %54 = load i32, i32* %5, align 4
  %55 = sext i32 %54 to i64
  %56 = getelementptr inbounds [26 x i8], [26 x i8]* %53, i64 0, i64 %55
  %57 = load i8, i8* %56, align 1
  %58 = sext i8 %57 to i32
  %59 = load i32, i32* %4, align 4
  %60 = add nsw i32 65, %59
  %61 = icmp eq i32 %58, %60
  br i1 %61, label %62, label %68

62:                                               ; preds = %49
  %63 = load i32, i32* %4, align 4
  %64 = sext i32 %63 to i64
  %65 = getelementptr inbounds [26 x i32], [26 x i32]* %3, i64 0, i64 %64
  %66 = load i32, i32* %65, align 4
  %67 = add nsw i32 %66, 1
  store i32 %67, i32* %65, align 4
  br label %68

68:                                               ; preds = %62, %49
  br label %69

69:                                               ; preds = %68
  %70 = load i32, i32* %5, align 4
  %71 = add nsw i32 %70, 1
  store i32 %71, i32* %5, align 4
  br label %39

72:                                               ; preds = %39
  br label %73

73:                                               ; preds = %72
  %74 = load i32, i32* %7, align 4
  %75 = add nsw i32 %74, 1
  store i32 %75, i32* %7, align 4
  br label %34

76:                                               ; preds = %34
  br label %77

77:                                               ; preds = %76
  %78 = load i32, i32* %4, align 4
  %79 = add nsw i32 %78, 1
  store i32 %79, i32* %4, align 4
  br label %30

80:                                               ; preds = %30
  %81 = getelementptr inbounds [26 x i32], [26 x i32]* %3, i64 0, i64 0
  %82 = load i32, i32* %81, align 16
  store i32 %82, i32* %6, align 4
  store i32 1, i32* %4, align 4
  br label %83

83:                                               ; preds = %100, %80
  %84 = load i32, i32* %4, align 4
  %85 = icmp slt i32 %84, 26
  br i1 %85, label %86, label %103

86:                                               ; preds = %83
  %87 = load i32, i32* %4, align 4
  %88 = sext i32 %87 to i64
  %89 = getelementptr inbounds [26 x i32], [26 x i32]* %3, i64 0, i64 %88
  %90 = load i32, i32* %89, align 4
  %91 = load i32, i32* %6, align 4
  %92 = icmp sgt i32 %90, %91
  br i1 %92, label %93, label %99

93:                                               ; preds = %86
  %94 = load i32, i32* %4, align 4
  %95 = sext i32 %94 to i64
  %96 = getelementptr inbounds [26 x i32], [26 x i32]* %3, i64 0, i64 %95
  %97 = load i32, i32* %96, align 4
  store i32 %97, i32* %6, align 4
  %98 = load i32, i32* %4, align 4
  store i32 %98, i32* %8, align 4
  br label %99

99:                                               ; preds = %93, %86
  br label %100

100:                                              ; preds = %99
  %101 = load i32, i32* %4, align 4
  %102 = add nsw i32 %101, 1
  store i32 %102, i32* %4, align 4
  br label %83

103:                                              ; preds = %83
  %104 = load i32, i32* %8, align 4
  %105 = add nsw i32 65, %104
  %106 = call i32 (i8*, ...) @printf(i8* getelementptr inbounds ([4 x i8], [4 x i8]* @.str.2, i64 0, i64 0), i32 %105)
  %107 = load i32, i32* %6, align 4
  %108 = call i32 (i8*, ...) @printf(i8* getelementptr inbounds ([4 x i8], [4 x i8]* @.str.3, i64 0, i64 0), i32 %107)
  store i32 0, i32* %4, align 4
  br label %109

109:                                              ; preds = %149, %103
  %110 = load i32, i32* %4, align 4
  %111 = load i32, i32* %2, align 4
  %112 = icmp slt i32 %110, %111
  br i1 %112, label %113, label %152

113:                                              ; preds = %109
  store i32 0, i32* %5, align 4
  br label %114

114:                                              ; preds = %145, %113
  %115 = load i32, i32* %5, align 4
  %116 = sext i32 %115 to i64
  %117 = load i32, i32* %4, align 4
  %118 = sext i32 %117 to i64
  %119 = getelementptr inbounds [999 x %struct.student], [999 x %struct.student]* @stu, i64 0, i64 %118
  %120 = getelementptr inbounds %struct.student, %struct.student* %119, i32 0, i32 1
  %121 = getelementptr inbounds [26 x i8], [26 x i8]* %120, i64 0, i64 0
  %122 = call i64 @strlen(i8* %121) #4
  %123 = icmp ult i64 %116, %122
  br i1 %123, label %124, label %148

124:                                              ; preds = %114
  %125 = load i32, i32* %4, align 4
  %126 = sext i32 %125 to i64
  %127 = getelementptr inbounds [999 x %struct.student], [999 x %struct.student]* @stu, i64 0, i64 %126
  %128 = getelementptr inbounds %struct.student, %struct.student* %127, i32 0, i32 1
  %129 = load i32, i32* %5, align 4
  %130 = sext i32 %129 to i64
  %131 = getelementptr inbounds [26 x i8], [26 x i8]* %128, i64 0, i64 %130
  %132 = load i8, i8* %131, align 1
  %133 = sext i8 %132 to i32
  %134 = load i32, i32* %8, align 4
  %135 = add nsw i32 65, %134
  %136 = icmp eq i32 %133, %135
  br i1 %136, label %137, label %144

137:                                              ; preds = %124
  %138 = load i32, i32* %4, align 4
  %139 = sext i32 %138 to i64
  %140 = getelementptr inbounds [999 x %struct.student], [999 x %struct.student]* @stu, i64 0, i64 %139
  %141 = getelementptr inbounds %struct.student, %struct.student* %140, i32 0, i32 0
  %142 = load i32, i32* %141, align 16
  %143 = call i32 (i8*, ...) @printf(i8* getelementptr inbounds ([4 x i8], [4 x i8]* @.str.3, i64 0, i64 0), i32 %142)
  br label %148

144:                                              ; preds = %124
  br label %145

145:                                              ; preds = %144
  %146 = load i32, i32* %5, align 4
  %147 = add nsw i32 %146, 1
  store i32 %147, i32* %5, align 4
  br label %114

148:                                              ; preds = %137, %114
  br label %149

149:                                              ; preds = %148
  %150 = load i32, i32* %4, align 4
  %151 = add nsw i32 %150, 1
  store i32 %151, i32* %4, align 4
  br label %109

152:                                              ; preds = %109
  ret i32 0
}

; Function Attrs: argmemonly nounwind willreturn
declare void @llvm.memset.p0i8.i64(i8* nocapture writeonly, i8, i64, i1 immarg) #1

declare dso_local i32 @__isoc99_scanf(i8*, ...) #2

; Function Attrs: nounwind readonly
declare dso_local i64 @strlen(i8*) #3

declare dso_local i32 @printf(i8*, ...) #2


!llvm.module.flags = !{!0}
!llvm.ident = !{!1}

!0 = !{i32 1, !"wchar_size", i32 4}
!1 = !{!"clang version 10.0.0-4ubuntu1 "}
